target datalayout = "e-m:e-p270:32:32-p271:32:32-p272:64:64-i64:64-i128:128-f80:128-n8:16:32:64-S128"
target triple = "x86_64-pc-linux-gnu"

%struct.ossl_cmp_msg_st = type { ptr, ptr, ptr, ptr, ptr, ptr }
%struct.ossl_cmp_pkibody_st = type { i32, %union.anon }
%union.anon = type { ptr }

; Function Attrs: nounwind uwtable
define i32 @OSSL_CMP_MSG_get_bodytype(ptr noundef %0) #0 {
  %2 = alloca i32, align 4
  %3 = alloca ptr, align 8
  store ptr %0, ptr %3, align 8, !tbaa !10
  %4 = load ptr, ptr %3, align 8, !tbaa !10
  %5 = icmp ne ptr %4, null
  br i1 %5, label %6, label %11

6:                                                ; preds = %1
  %7 = load ptr, ptr %3, align 8, !tbaa !10
  %8 = getelementptr inbounds nuw %struct.ossl_cmp_msg_st, ptr %7, i32 0, i32 1
  %9 = load ptr, ptr %8, align 8, !tbaa !22
  %10 = icmp ne ptr %9, null
  br label %11

11:                                               ; preds = %6, %1
  %12 = phi i1 [ false, %1 ], [ %10, %6 ]
  %13 = zext i1 %12 to i32
  %14 = icmp ne i32 %13, 0
  %15 = xor i1 %14, true
  %16 = xor i1 %15, true
  %17 = zext i1 %16 to i32
  %18 = sext i32 %17 to i64
  %19 = call i64 @llvm.expect.i64(i64 %18, i64 1)
  %20 = icmp ne i64 %19, 0
  br i1 %20, label %22, label %21

21:                                               ; preds = %11
  store i32 -1, ptr %2, align 4
  br label %28

22:                                               ; preds = %11
  %23 = load ptr, ptr %3, align 8, !tbaa !10
  %24 = getelementptr inbounds nuw %struct.ossl_cmp_msg_st, ptr %23, i32 0, i32 1
  %25 = load ptr, ptr %24, align 8, !tbaa !22
  %26 = getelementptr inbounds nuw %struct.ossl_cmp_pkibody_st, ptr %25, i32 0, i32 0
  %27 = load i32, ptr %26, align 8, !tbaa !23
  store i32 %27, ptr %2, align 4
  br label %28

28:                                               ; preds = %22, %21
  %29 = load i32, ptr %2, align 4
  ret i32 %29
}