; Function Attrs: mustprogress nofree norecurse nosync nounwind willreturn memory(read, inaccessiblemem: none) uwtable
define i32 @OSSL_CMP_MSG_get_bodytype(ptr noundef readonly captures(address_is_null) %0) local_unnamed_addr #5 {
  %.not = icmp eq ptr %0, null
  br i1 %.not, label %.critedge, label %2

2:                                                ; preds = %1
  %3 = getelementptr inbounds nuw i8, ptr %0, i64 8
  %4 = load ptr, ptr %3, align 8, !tbaa !17
  %.not4 = icmp eq ptr %4, null
  br i1 %.not4, label %.critedge, label %5, !prof !18

5:                                                ; preds = %2
  %6 = load i32, ptr %4, align 8, !tbaa !19
  br label %.critedge

.critedge:                                        ; preds = %1, %2, %5
  %.0 = phi i32 [ %6, %5 ], [ -1, %2 ], [ -1, %1 ]
  ret i32 %.0
}